target datalayout = "e-m:e-p270:32:32-p271:32:32-p272:64:64-i64:64-i128:128-f80:128-n8:16:32:64-S128"
target triple = "x86_64-unknown-linux-gnu"

%"class.re2::Regexp" = type { i8, i8, i16, i16, i16, %union.anon, ptr, %union.anon.0 }
%union.anon = type { ptr }
%union.anon.0 = type { %struct.anon.1 }
%struct.anon.1 = type { i32, ptr }

; Function Attrs: mustprogress nounwind uwtable
define void @_ZN3re26RegexpC2ENS_8RegexpOpENS0_10ParseFlagsE(ptr noundef nonnull align 8 dereferenceable(40) %this, i32 noundef %op, i32 noundef %parse_flags) unnamed_addr #0 align 2 {
entry:
  %this.addr = alloca ptr, align 8
  %op.addr = alloca i32, align 4
  %parse_flags.addr = alloca i32, align 4
  store ptr %this, ptr %this.addr, align 8
  store i32 %op, ptr %op.addr, align 4
  store i32 %parse_flags, ptr %parse_flags.addr, align 4
  %this1 = load ptr, ptr %this.addr, align 8
  %op_ = getelementptr inbounds %"class.re2::Regexp", ptr %this1, i32 0, i32 0
  %0 = load i32, ptr %op.addr, align 4
  %conv = trunc i32 %0 to i8
  store i8 %conv, ptr %op_, align 8
  %simple_ = getelementptr inbounds %"class.re2::Regexp", ptr %this1, i32 0, i32 1
  store i8 0, ptr %simple_, align 1
  %parse_flags_ = getelementptr inbounds %"class.re2::Regexp", ptr %this1, i32 0, i32 2
  %1 = load i32, ptr %parse_flags.addr, align 4
  %conv2 = trunc i32 %1 to i16
  store i16 %conv2, ptr %parse_flags_, align 2
  %ref_ = getelementptr inbounds %"class.re2::Regexp", ptr %this1, i32 0, i32 3
  store i16 1, ptr %ref_, align 4
  %nsub_ = getelementptr inbounds %"class.re2::Regexp", ptr %this1, i32 0, i32 4
  store i16 0, ptr %nsub_, align 2
  %down_ = getelementptr inbounds %"class.re2::Regexp", ptr %this1, i32 0, i32 6
  store ptr null, ptr %down_, align 8
  %2 = getelementptr inbounds %"class.re2::Regexp", ptr %this1, i32 0, i32 5
  store ptr null, ptr %2, align 8
  %3 = getelementptr inbounds %"class.re2::Regexp", ptr %this1, i32 0, i32 7
  %arraydecay = getelementptr inbounds [2 x ptr], ptr %3, i64 0, i64 0
  call void @llvm.memset.p0.i64(ptr align 8 %arraydecay, i8 0, i64 16, i1 false)
  ret void
}