; Function Attrs: mustprogress nofree norecurse nosync nounwind willreturn memory(argmem: write) uwtable
define void @_ZN3re26RegexpC2ENS_8RegexpOpENS0_10ParseFlagsE(ptr nocapture noundef nonnull writeonly align 8 dereferenceable(40) %this, i32 noundef %op, i32 noundef %parse_flags) unnamed_addr #0 align 2 {
entry:
  %conv = trunc i32 %op to i8
  store i8 %conv, ptr %this, align 8
  %simple_ = getelementptr inbounds i8, ptr %this, i64 1
  store i8 0, ptr %simple_, align 1
  %parse_flags_ = getelementptr inbounds i8, ptr %this, i64 2
  %conv2 = trunc i32 %parse_flags to i16
  store i16 %conv2, ptr %parse_flags_, align 2
  %ref_ = getelementptr inbounds i8, ptr %this, i64 4
  store i16 1, ptr %ref_, align 4
  %nsub_ = getelementptr inbounds i8, ptr %this, i64 6
  tail call void @llvm.memset.p0.i64(ptr noundef nonnull align 2 dereferenceable(34) %nsub_, i8 0, i64 34, i1 false)
  ret void
}